target datalayout = "e-m:e-p270:32:32-p271:32:32-p272:64:64-i64:64-i128:128-f80:128-n8:16:32:64-S128"
target triple = "x86_64-pc-linux-gnu"

%struct.pkcs7_st = type { ptr, i64, i32, i32, ptr, %union.anon, %struct.PKCS7_CTX_st }
%union.anon = type { ptr }
%struct.PKCS7_CTX_st = type { ptr, ptr }
%struct.pkcs7_signed_st = type { ptr, ptr, ptr, ptr, ptr, ptr }
%struct.pkcs7_signedandenveloped_st = type { ptr, ptr, ptr, ptr, ptr, ptr, ptr }

@.str = private unnamed_addr constant [34 x i8] c"../openssl/crypto/pkcs7/pk7_lib.c\00", align 1
@__func__.PKCS7_add_certificate = private unnamed_addr constant [22 x i8] c"PKCS7_add_certificate\00", align 1

; Function Attrs: nounwind uwtable
define i32 @PKCS7_add_certificate(ptr noundef %0, ptr noundef %1) #0 {
  %3 = alloca i32, align 4
  %4 = alloca ptr, align 8
  %5 = alloca ptr, align 8
  %6 = alloca i32, align 4
  %7 = alloca ptr, align 8
  %8 = alloca i32, align 4
  store ptr %0, ptr %4, align 8, !tbaa !3
  store ptr %1, ptr %5, align 8, !tbaa !74
  call void @llvm.lifetime.start.p0(i64 4, ptr %6) #4
  call void @llvm.lifetime.start.p0(i64 8, ptr %7) #4
  %9 = load ptr, ptr %4, align 8, !tbaa !3
  %10 = getelementptr inbounds nuw %struct.pkcs7_st, ptr %9, i32 0, i32 4
  %11 = load ptr, ptr %10, align 8, !tbaa !14
  %12 = call i32 @OBJ_obj2nid(ptr noundef %11)
  store i32 %12, ptr %6, align 4, !tbaa !8
  %13 = load i32, ptr %6, align 4, !tbaa !8
  switch i32 %13, label %24 [
    i32 22, label %14
    i32 24, label %19
  ]

14:                                               ; preds = %2
  %15 = load ptr, ptr %4, align 8, !tbaa !3
  %16 = getelementptr inbounds nuw %struct.pkcs7_st, ptr %15, i32 0, i32 5
  %17 = load ptr, ptr %16, align 8, !tbaa !19
  %18 = getelementptr inbounds nuw %struct.pkcs7_signed_st, ptr %17, i32 0, i32 2
  store ptr %18, ptr %7, align 8, !tbaa !76
  br label %25

19:                                               ; preds = %2
  %20 = load ptr, ptr %4, align 8, !tbaa !3
  %21 = getelementptr inbounds nuw %struct.pkcs7_st, ptr %20, i32 0, i32 5
  %22 = load ptr, ptr %21, align 8, !tbaa !19
  %23 = getelementptr inbounds nuw %struct.pkcs7_signedandenveloped_st, ptr %22, i32 0, i32 2
  store ptr %23, ptr %7, align 8, !tbaa !76
  br label %25

24:                                               ; preds = %2
  call void @ERR_new()
  call void @ERR_set_debug(ptr noundef @.str, i32 noundef 270, ptr noundef @__func__.PKCS7_add_certificate)
  call void (i32, i32, ptr, ...) @ERR_set_error(i32 noundef 33, i32 noundef 113, ptr noundef null)
  store i32 0, ptr %3, align 4
  store i32 1, ptr %8, align 4
  br label %29

25:                                               ; preds = %19, %14
  %26 = load ptr, ptr %7, align 8, !tbaa !76
  %27 = load ptr, ptr %5, align 8, !tbaa !74
  %28 = call i32 @ossl_x509_add_cert_new(ptr noundef %26, ptr noundef %27, i32 noundef 1)
  store i32 %28, ptr %3, align 4
  store i32 1, ptr %8, align 4
  br label %29

29:                                               ; preds = %25, %24
  call void @llvm.lifetime.end.p0(i64 8, ptr %7) #4
  call void @llvm.lifetime.end.p0(i64 4, ptr %6) #4
  %30 = load i32, ptr %3, align 4
  ret i32 %30
}