; Function Attrs: nounwind uwtable
define i32 @PKCS7_add_certificate(ptr noundef readonly captures(none) %0, ptr noundef %1) local_unnamed_addr #0 {
  %3 = getelementptr inbounds nuw i8, ptr %0, i64 24
  %4 = load ptr, ptr %3, align 8, !tbaa !3
  %5 = tail call i32 @OBJ_obj2nid(ptr noundef %4) #7
  switch i32 %5, label %6 [
    i32 22, label %7
    i32 24, label %7
  ]

6:                                                ; preds = %2
  tail call void @ERR_new() #7
  tail call void @ERR_set_debug(ptr noundef nonnull @.str, i32 noundef 270, ptr noundef nonnull @__func__.PKCS7_add_certificate) #7
  tail call void (i32, i32, ptr, ...) @ERR_set_error(i32 noundef 33, i32 noundef 113, ptr noundef null) #7
  br label %9

7:                                                ; preds = %2, %2
  %.pn.in = getelementptr inbounds nuw i8, ptr %0, i64 32
  %.pn = load ptr, ptr %.pn.in, align 8, !tbaa !14
  %.0 = getelementptr inbounds nuw i8, ptr %.pn, i64 16
  %8 = tail call i32 @ossl_x509_add_cert_new(ptr noundef nonnull %.0, ptr noundef %1, i32 noundef 1) #7
  br label %9

9:                                                ; preds = %7, %6
  %.06 = phi i32 [ 0, %6 ], [ %8, %7 ]
  ret i32 %.06
}